Certificate:
    Data:
        Version: 3 (0x2)
        Serial Number: 41 (0x29)
        Signature Algorithm: sha256WithRSAEncryption
        Issuer: C=US, O=Google, OU=Enterprise, CN=Enterprise Subordinate CA
        Validity
            Not Before: Oct  4 01:29:37 2022 GMT
            Not After : Jan 11 01:29:37 2025 GMT
        Subject: C=US, O=Google, OU=Enterprise, CN=grpc.domain.com
        Subject Public Key Info:
            Public Key Algorithm: rsaEncryption
                Public-Key: (2048 bit)
                Modulus:
                    00:e4:e2:b1:3e:e4:2f:5d:73:cf:bc:35:d6:41:fe:
                    7a:30:e8:89:cd:29:1e:94:00:40:2c:53:79:08:d6:
                    46:a7:e7:3d:85:f5:95:9c:a2:ca:b2:6d:ed:b5:84:
                    14:b6:f0:e5:33:04:97:d9:b3:4f:8d:e4:45:cc:e5:
                    60:a2:ac:5a:ab:80:f4:b0:b4:6c:40:c1:25:fe:a8:
                    a3:45:03:c5:ca:2f:ea:19:06:d0:4d:94:54:14:4c:
                    da:57:d7:90:9f:ac:80:a4:f6:5b:d6:86:55:6a:38:
                    8a:cf:18:7f:e1:cd:b0:8e:65:38:46:b2:14:80:5b:
                    27:e8:c9:6a:9a:60:eb:e9:0d:20:fb:b4:b3:35:1e:
                    21:88:3c:f7:df:eb:3b:bd:79:6c:d3:68:db:8c:3d:
                    d6:02:bb:d6:2b:1c:39:63:ed:1e:63:b7:3f:3e:bb:
                    f2:6a:22:a3:20:be:b3:cf:1d:b5:bc:fc:14:d9:b0:
                    2b:94:4f:a9:e9:c8:4f:8e:14:9f:69:71:f6:2b:a4:
                    bc:8e:46:64:43:ae:dd:6a:76:5d:5b:27:e4:c8:ca:
                    a0:5a:fe:d2:5c:f8:25:ac:6e:fc:ac:30:d0:9a:d2:
                    04:e6:f9:d4:2e:59:0c:53:ea:fa:22:1f:a9:64:4f:
                    0b:7a:ec:bb:88:28:51:a1:44:41:95:60:d4:2f:fe:
                    15:77
                Exponent: 65537 (0x10001)
        X509v3 extensions:
            X509v3 Key Usage: critical
                Digital Signature
            X509v3 Basic Constraints: 
                CA:FALSE
            X509v3 Extended Key Usage: 
                TLS Web Server Authentication
            X509v3 Subject Key Identifier: 
                85:3D:8F:C8:48:A0:7D:7F:A1:32:A3:FC:D4:C4:EF:D6:F4:3F:A6:4A
            X509v3 Authority Key Identifier: 
                B7:BA:B0:02:A1:E7:BE:34:C6:C1:05:5C:66:78:E5:BB:53:5D:A1:54
            Authority Information Access: 
                CA Issuers - URI:http://pki.esodemoapp2.com/ca/tls-ca.cer
            X509v3 CRL Distribution Points: 
                Full Name:
                  URI:http://pki.esodemoapp2.com/ca/tls-ca.crl
            X509v3 Subject Alternative Name: 
                DNS:grpc.domain.com
    Signature Algorithm: sha256WithRSAEncryption
    Signature Value:
        28:c9:4f:2e:3e:d6:d3:c9:82:19:91:11:4c:a4:62:76:45:ea:
        a9:ea:d3:9c:2c:c9:51:c4:57:d5:51:99:27:ab:e7:11:37:a3:
        40:82:c7:dd:02:3f:48:28:51:5d:bd:40:5b:b3:95:fc:9b:a7:
        a5:88:0a:04:1a:09:2d:bc:a6:5b:5d:78:21:6c:d0:a7:b4:82:
        e7:cd:54:ba:85:67:44:25:a1:5b:49:a2:16:92:57:96:f2:22:
        cf:b2:75:65:83:62:6c:8a:3c:a9:08:40:bf:2f:95:08:61:74:
        c7:6e:97:21:f5:2a:59:24:ad:f6:1b:67:8e:10:21:95:8b:f1:
        38:e9:52:14:eb:c9:69:dd:df:39:c9:61:2d:ae:7f:dd:06:3c:
        cc:50:18:da:09:76:ec:ce:92:4b:1a:10:f5:4c:8f:bd:1b:5b:
        c1:1d:3f:8c:b8:47:6e:2d:4f:cf:23:cb:26:0e:4d:46:1f:65:
        a5:8f:c7:5c:21:13:99:13:6e:d5:89:bb:21:22:c6:81:9b:75:
        ea:26:89:3a:d6:89:40:98:40:94:af:ac:26:79:c4:5f:7f:fa:
        4c:98:07:60:79:3f:c8:6a:07:21:2f:6d:ad:0d:79:e2:c4:ca:
        9b:02:5b:b2:9a:b0:13:65:75:98:70:f7:aa:fb:8c:88:9d:15:
        e4:dc:98:86
-----BEGIN CERTIFICATE-----
MIIEMjCCAxqgAwIBAgIBKTANBgkqhkiG9w0BAQsFADBXMQswCQYDVQQGEwJVUzEP
MA0GA1UECgwGR29vZ2xlMRMwEQYDVQQLDApFbnRlcnByaXNlMSIwIAYDVQQDDBlF
bnRlcnByaXNlIFN1Ym9yZGluYXRlIENBMB4XDTIyMTAwNDAxMjkzN1oXDTI1MDEx
MTAxMjkzN1owTTELMAkGA1UEBhMCVVMxDzANBgNVBAoMBkdvb2dsZTETMBEGA1UE
CwwKRW50ZXJwcmlzZTEYMBYGA1UEAwwPZ3JwYy5kb21haW4uY29tMIIBIjANBgkq
hkiG9w0BAQEFAAOCAQ8AMIIBCgKCAQEA5OKxPuQvXXPPvDXWQf56MOiJzSkelABA
LFN5CNZGp+c9hfWVnKLKsm3ttYQUtvDlMwSX2bNPjeRFzOVgoqxaq4D0sLRsQMEl
/qijRQPFyi/qGQbQTZRUFEzaV9eQn6yApPZb1oZVajiKzxh/4c2wjmU4RrIUgFsn
6MlqmmDr6Q0g+7SzNR4hiDz33+s7vXls02jbjD3WArvWKxw5Y+0eY7c/PrvyaiKj
IL6zzx21vPwU2bArlE+p6chPjhSfaXH2K6S8jkZkQ67danZdWyfkyMqgWv7SXPgl
rG78rDDQmtIE5vnULlkMU+r6Ih+pZE8Leuy7iChRoURBlWDUL/4VdwIDAQABo4IB
ETCCAQ0wDgYDVR0PAQH/BAQDAgeAMAkGA1UdEwQCMAAwEwYDVR0lBAwwCgYIKwYB
BQUHAwEwHQYDVR0OBBYEFIU9j8hIoH1/oTKj/NTE79b0P6ZKMB8GA1UdIwQYMBaA
FLe6sAKh5740xsEFXGZ45btTXaFUMEQGCCsGAQUFBwEBBDgwNjA0BggrBgEFBQcw
AoYoaHR0cDovL3BraS5lc29kZW1vYXBwMi5jb20vY2EvdGxzLWNhLmNlcjA5BgNV
HR8EMjAwMC6gLKAqhihodHRwOi8vcGtpLmVzb2RlbW9hcHAyLmNvbS9jYS90bHMt
Y2EuY3JsMBoGA1UdEQQTMBGCD2dycGMuZG9tYWluLmNvbTANBgkqhkiG9w0BAQsF
AAOCAQEAKMlPLj7W08mCGZERTKRidkXqqerTnCzJUcRX1VGZJ6vnETejQILH3QI/
SChRXb1AW7OV/JunpYgKBBoJLbymW114IWzQp7SC581UuoVnRCWhW0miFpJXlvIi
z7J1ZYNibIo8qQhAvy+VCGF0x26XIfUqWSSt9htnjhAhlYvxOOlSFOvJad3fOclh
La5/3QY8zFAY2gl27M6SSxoQ9UyPvRtbwR0/jLhHbi1PzyPLJg5NRh9lpY/HXCET
mRNu1Ym7ISLGgZt16iaJOtaJQJhAlK+sJnnEX3/6TJgHYHk/yGoHIS9trQ154sTK
mwJbspqwE2V1mHD3qvuMiJ0V5NyYhg==
-----END CERTIFICATE-----
